target datalayout = "e-m:e-p270:32:32-p271:32:32-p272:64:64-i64:64-i128:128-f80:128-n8:16:32:64-S128"
target triple = "x86_64-pc-linux-gnu"

; Function Attrs: mustprogress nounwind uwtable
define noundef ptr @_ZN6icu_779BytesTrie11jumpByDeltaEPKh(ptr noundef %0) #0 align 2 {
  %2 = alloca ptr, align 8
  %3 = alloca i32, align 4
  store ptr %0, ptr %2, align 8, !tbaa !12
  call void @llvm.lifetime.start.p0(i64 4, ptr %3) #8
  %4 = load ptr, ptr %2, align 8, !tbaa !12
  %5 = getelementptr inbounds nuw i8, ptr %4, i32 1
  store ptr %5, ptr %2, align 8, !tbaa !12
  %6 = load i8, ptr %4, align 1, !tbaa !14
  %7 = zext i8 %6 to i32
  store i32 %7, ptr %3, align 4, !tbaa !13
  %8 = load i32, ptr %3, align 4, !tbaa !13
  %9 = icmp slt i32 %8, 192
  br i1 %9, label %10, label %11

10:                                               ; preds = %1
  br label %93

11:                                               ; preds = %1
  %12 = load i32, ptr %3, align 4, !tbaa !13
  %13 = icmp slt i32 %12, 240
  br i1 %13, label %14, label %23

14:                                               ; preds = %11
  %15 = load i32, ptr %3, align 4, !tbaa !13
  %16 = sub nsw i32 %15, 192
  %17 = shl i32 %16, 8
  %18 = load ptr, ptr %2, align 8, !tbaa !12
  %19 = getelementptr inbounds nuw i8, ptr %18, i32 1
  store ptr %19, ptr %2, align 8, !tbaa !12
  %20 = load i8, ptr %18, align 1, !tbaa !14
  %21 = zext i8 %20 to i32
  %22 = or i32 %17, %21
  store i32 %22, ptr %3, align 4, !tbaa !13
  br label %92

23:                                               ; preds = %11
  %24 = load i32, ptr %3, align 4, !tbaa !13
  %25 = icmp slt i32 %24, 254
  br i1 %25, label %26, label %43

26:                                               ; preds = %23
  %27 = load i32, ptr %3, align 4, !tbaa !13
  %28 = sub nsw i32 %27, 240
  %29 = shl i32 %28, 16
  %30 = load ptr, ptr %2, align 8, !tbaa !12
  %31 = getelementptr inbounds i8, ptr %30, i64 0
  %32 = load i8, ptr %31, align 1, !tbaa !14
  %33 = zext i8 %32 to i32
  %34 = shl i32 %33, 8
  %35 = or i32 %29, %34
  %36 = load ptr, ptr %2, align 8, !tbaa !12
  %37 = getelementptr inbounds i8, ptr %36, i64 1
  %38 = load i8, ptr %37, align 1, !tbaa !14
  %39 = zext i8 %38 to i32
  %40 = or i32 %35, %39
  store i32 %40, ptr %3, align 4, !tbaa !13
  %41 = load ptr, ptr %2, align 8, !tbaa !12
  %42 = getelementptr inbounds i8, ptr %41, i64 2
  store ptr %42, ptr %2, align 8, !tbaa !12
  br label %91

43:                                               ; preds = %23
  %44 = load i32, ptr %3, align 4, !tbaa !13
  %45 = icmp eq i32 %44, 254
  br i1 %45, label %46, label %65

46:                                               ; preds = %43
  %47 = load ptr, ptr %2, align 8, !tbaa !12
  %48 = getelementptr inbounds i8, ptr %47, i64 0
  %49 = load i8, ptr %48, align 1, !tbaa !14
  %50 = zext i8 %49 to i32
  %51 = shl i32 %50, 16
  %52 = load ptr, ptr %2, align 8, !tbaa !12
  %53 = getelementptr inbounds i8, ptr %52, i64 1
  %54 = load i8, ptr %53, align 1, !tbaa !14
  %55 = zext i8 %54 to i32
  %56 = shl i32 %55, 8
  %57 = or i32 %51, %56
  %58 = load ptr, ptr %2, align 8, !tbaa !12
  %59 = getelementptr inbounds i8, ptr %58, i64 2
  %60 = load i8, ptr %59, align 1, !tbaa !14
  %61 = zext i8 %60 to i32
  %62 = or i32 %57, %61
  store i32 %62, ptr %3, align 4, !tbaa !13
  %63 = load ptr, ptr %2, align 8, !tbaa !12
  %64 = getelementptr inbounds i8, ptr %63, i64 3
  store ptr %64, ptr %2, align 8, !tbaa !12
  br label %90

65:                                               ; preds = %43
  %66 = load ptr, ptr %2, align 8, !tbaa !12
  %67 = getelementptr inbounds i8, ptr %66, i64 0
  %68 = load i8, ptr %67, align 1, !tbaa !14
  %69 = zext i8 %68 to i32
  %70 = shl i32 %69, 24
  %71 = load ptr, ptr %2, align 8, !tbaa !12
  %72 = getelementptr inbounds i8, ptr %71, i64 1
  %73 = load i8, ptr %72, align 1, !tbaa !14
  %74 = zext i8 %73 to i32
  %75 = shl i32 %74, 16
  %76 = or i32 %70, %75
  %77 = load ptr, ptr %2, align 8, !tbaa !12
  %78 = getelementptr inbounds i8, ptr %77, i64 2
  %79 = load i8, ptr %78, align 1, !tbaa !14
  %80 = zext i8 %79 to i32
  %81 = shl i32 %80, 8
  %82 = or i32 %76, %81
  %83 = load ptr, ptr %2, align 8, !tbaa !12
  %84 = getelementptr inbounds i8, ptr %83, i64 3
  %85 = load i8, ptr %84, align 1, !tbaa !14
  %86 = zext i8 %85 to i32
  %87 = or i32 %82, %86
  store i32 %87, ptr %3, align 4, !tbaa !13
  %88 = load ptr, ptr %2, align 8, !tbaa !12
  %89 = getelementptr inbounds i8, ptr %88, i64 4
  store ptr %89, ptr %2, align 8, !tbaa !12
  br label %90

90:                                               ; preds = %65, %46
  br label %91

91:                                               ; preds = %90, %26
  br label %92

92:                                               ; preds = %91, %14
  br label %93

93:                                               ; preds = %92, %10
  %94 = load ptr, ptr %2, align 8, !tbaa !12
  %95 = load i32, ptr %3, align 4, !tbaa !13
  %96 = sext i32 %95 to i64
  %97 = getelementptr inbounds i8, ptr %94, i64 %96
  call void @llvm.lifetime.end.p0(i64 4, ptr %3) #8
  ret ptr %97
}