; Function Attrs: mustprogress nofree norecurse nosync nounwind willreturn memory(argmem: read) uwtable
define noundef nonnull ptr @_ZN6icu_779BytesTrie11jumpByDeltaEPKh(ptr noundef readonly %0) local_unnamed_addr #4 align 2 {
  %2 = getelementptr inbounds nuw i8, ptr %0, i64 1
  %3 = load i8, ptr %0, align 1, !tbaa !10
  %4 = zext i8 %3 to i32
  %5 = icmp ult i8 %3, -64
  br i1 %5, label %56, label %6

6:                                                ; preds = %1
  %7 = icmp samesign ult i8 %3, -16
  br i1 %7, label %8, label %15

8:                                                ; preds = %6
  %9 = shl nuw nsw i32 %4, 8
  %10 = add nsw i32 %9, -49152
  %11 = getelementptr inbounds nuw i8, ptr %0, i64 2
  %12 = load i8, ptr %2, align 1, !tbaa !10
  %13 = zext i8 %12 to i32
  %14 = or disjoint i32 %10, %13
  br label %56

15:                                               ; preds = %6
  %16 = icmp samesign ult i8 %3, -2
  br i1 %16, label %17, label %29

17:                                               ; preds = %15
  %18 = shl nuw nsw i32 %4, 16
  %19 = add nsw i32 %18, -15728640
  %20 = load i8, ptr %2, align 1, !tbaa !10
  %21 = zext i8 %20 to i32
  %22 = shl nuw nsw i32 %21, 8
  %23 = or disjoint i32 %22, %19
  %24 = getelementptr inbounds nuw i8, ptr %0, i64 2
  %25 = load i8, ptr %24, align 1, !tbaa !10
  %26 = zext i8 %25 to i32
  %27 = or disjoint i32 %23, %26
  %28 = getelementptr inbounds nuw i8, ptr %0, i64 3
  br label %56

29:                                               ; preds = %15
  %30 = icmp eq i8 %3, -2
  %31 = load i8, ptr %2, align 1, !tbaa !10
  %32 = zext i8 %31 to i32
  %33 = getelementptr inbounds nuw i8, ptr %0, i64 2
  %34 = load i8, ptr %33, align 1, !tbaa !10
  %35 = zext i8 %34 to i32
  %36 = getelementptr inbounds nuw i8, ptr %0, i64 3
  %37 = load i8, ptr %36, align 1, !tbaa !10
  %38 = zext i8 %37 to i32
  br i1 %30, label %39, label %45

39:                                               ; preds = %29
  %40 = shl nuw nsw i32 %32, 16
  %41 = shl nuw nsw i32 %35, 8
  %42 = or disjoint i32 %41, %40
  %43 = or disjoint i32 %42, %38
  %44 = getelementptr inbounds nuw i8, ptr %0, i64 4
  br label %56

45:                                               ; preds = %29
  %46 = shl nuw i32 %32, 24
  %47 = shl nuw nsw i32 %35, 16
  %48 = or disjoint i32 %47, %46
  %49 = shl nuw nsw i32 %38, 8
  %50 = or disjoint i32 %48, %49
  %51 = getelementptr inbounds nuw i8, ptr %0, i64 4
  %52 = load i8, ptr %51, align 1, !tbaa !10
  %53 = zext i8 %52 to i32
  %54 = or disjoint i32 %50, %53
  %55 = getelementptr inbounds nuw i8, ptr %0, i64 5
  br label %56

56:                                               ; preds = %8, %39, %45, %17, %1
  %.021 = phi ptr [ %2, %1 ], [ %11, %8 ], [ %28, %17 ], [ %44, %39 ], [ %55, %45 ]
  %.0 = phi i32 [ %4, %1 ], [ %14, %8 ], [ %27, %17 ], [ %43, %39 ], [ %54, %45 ]
  %57 = sext i32 %.0 to i64
  %58 = getelementptr inbounds i8, ptr %.021, i64 %57
  ret ptr %58
}